target datalayout = "e-m:e-p270:32:32-p271:32:32-p272:64:64-i64:64-i128:128-f80:128-n8:16:32:64-S128"
target triple = "x86_64-pc-linux-gnu"

%struct.RString = type { %struct.RBasic, i64, %union.anon }
%struct.RBasic = type { i64, i64 }
%union.anon = type { %struct.anon }
%struct.anon = type { ptr, %union.anon.0 }
%union.anon.0 = type { i64 }
%struct.OnigEncodingTypeST = type { ptr, ptr, i32, i32, ptr, ptr, ptr, ptr, ptr, ptr, ptr, ptr, ptr, ptr, ptr, ptr, ptr, i32, i32 }
%struct.anon.1 = type { [1 x i8] }

; Function Attrs: inlinehint nounwind sspstrong willreturn memory(read) uwtable
define internal i64 @RB_FL_TEST_RAW(i64 noundef %0, i64 noundef %1) #1 {
  %3 = alloca i64, align 8
  %4 = alloca i64, align 8
  store i64 %0, ptr %3, align 8, !tbaa !7
  store i64 %1, ptr %4, align 8, !tbaa !7
  %5 = load i64, ptr %3, align 8, !tbaa !7
  %6 = inttoptr i64 %5 to ptr
  %7 = getelementptr inbounds nuw %struct.RBasic, ptr %6, i32 0, i32 0
  %8 = load i64, ptr %7, align 8, !tbaa !23
  %9 = load i64, ptr %4, align 8, !tbaa !7
  %10 = and i64 %8, %9
  ret i64 %10
}

; Function Attrs: inlinehint nounwind sspstrong uwtable
define internal i32 @RB_ENCODING_GET_INLINED(i64 noundef %0) #3 {
  %2 = alloca i64, align 8
  %3 = alloca i64, align 8
  store i64 %0, ptr %2, align 8, !tbaa !7
  call void @llvm.lifetime.start.p0(i64 8, ptr %3) #29
  %4 = load i64, ptr %2, align 8, !tbaa !7
  %5 = call i64 @RB_FL_TEST_RAW(i64 noundef %4, i64 noundef 532676608) #28
  %6 = lshr i64 %5, 22
  store i64 %6, ptr %3, align 8, !tbaa !7
  %7 = load i64, ptr %3, align 8, !tbaa !7
  %8 = trunc i64 %7 to i32
  call void @llvm.lifetime.end.p0(i64 8, ptr %3) #29
  ret i32 %8
}

; Function Attrs: inlinehint nounwind sspstrong willreturn memory(read) uwtable
define internal i64 @RSTRING_LEN(i64 noundef %0) #1 {
  %2 = alloca i64, align 8
  store i64 %0, ptr %2, align 8, !tbaa !7
  %3 = load i64, ptr %2, align 8, !tbaa !7
  %4 = inttoptr i64 %3 to ptr
  %5 = getelementptr inbounds nuw %struct.RString, ptr %4, i32 0, i32 1
  %6 = load i64, ptr %5, align 8, !tbaa !11
  ret i64 %6
}

; Function Attrs: inlinehint nounwind sspstrong willreturn memory(read) uwtable
define internal zeroext i1 @RB_FL_ANY_RAW(i64 noundef %0, i64 noundef %1) #1 {
  %3 = alloca i64, align 8
  %4 = alloca i64, align 8
  store i64 %0, ptr %3, align 8, !tbaa !7
  store i64 %1, ptr %4, align 8, !tbaa !7
  %5 = load i64, ptr %3, align 8, !tbaa !7
  %6 = load i64, ptr %4, align 8, !tbaa !7
  %7 = call i64 @RB_FL_TEST_RAW(i64 noundef %5, i64 noundef %6) #28
  %8 = icmp ne i64 %7, 0
  ret i1 %8
}

; Function Attrs: inlinehint nounwind sspstrong uwtable
define internal i32 @RB_ENCODING_GET(i64 noundef %0) #3 {
  %2 = alloca i32, align 4
  %3 = alloca i64, align 8
  %4 = alloca i32, align 4
  %5 = alloca i32, align 4
  store i64 %0, ptr %3, align 8, !tbaa !7
  call void @llvm.lifetime.start.p0(i64 4, ptr %4) #29
  %6 = load i64, ptr %3, align 8, !tbaa !7
  %7 = call i32 @RB_ENCODING_GET_INLINED(i64 noundef %6)
  store i32 %7, ptr %4, align 4, !tbaa !22
  %8 = load i32, ptr %4, align 4, !tbaa !22
  %9 = icmp eq i32 %8, 127
  br i1 %9, label %10, label %13

10:                                               ; preds = %1
  %11 = load i64, ptr %3, align 8, !tbaa !7
  %12 = call i32 @rb_enc_get_index(i64 noundef %11)
  store i32 %12, ptr %2, align 4
  store i32 1, ptr %5, align 4
  br label %15

13:                                               ; preds = %1
  %14 = load i32, ptr %4, align 4, !tbaa !22
  store i32 %14, ptr %2, align 4
  store i32 1, ptr %5, align 4
  br label %15

15:                                               ; preds = %13, %10
  call void @llvm.lifetime.end.p0(i64 4, ptr %4) #29
  %16 = load i32, ptr %2, align 4
  ret i32 %16
}

; Function Attrs: alwaysinline nounwind
define internal ptr @memset.inline(ptr nonnull %0, i32 %1, i64 %2) #7 {
  %4 = alloca ptr, align 8
  %5 = alloca i32, align 4
  %6 = alloca i64, align 8
  store ptr %0, ptr %4, align 8, !tbaa !25
  store i32 %1, ptr %5, align 4, !tbaa !22
  store i64 %2, ptr %6, align 8, !tbaa !7
  %7 = load ptr, ptr %4, align 8, !tbaa !25
  %8 = load i32, ptr %5, align 4, !tbaa !22
  %9 = load i64, ptr %6, align 8, !tbaa !7
  %10 = load ptr, ptr %4, align 8, !tbaa !25
  %11 = call i64 @llvm.objectsize.i64.p0(ptr %10, i1 false, i1 true, i1 false)
  %12 = call ptr @__memset_chk(ptr noundef %7, i32 noundef %8, i64 noundef %9, i64 noundef %11) #29
  ret ptr %12
}

; Function Attrs: inlinehint nounwind sspstrong uwtable
define internal i32 @rb_enc_mbminlen(ptr noundef %0) #3 {
  %2 = alloca ptr, align 8
  store ptr %0, ptr %2, align 8, !tbaa !15
  %3 = load ptr, ptr %2, align 8, !tbaa !15
  %4 = getelementptr inbounds nuw %struct.OnigEncodingTypeST, ptr %3, i32 0, i32 3
  %5 = load i32, ptr %4, align 4, !tbaa !18
  ret i32 %5
}

; Function Attrs: inlinehint nounwind sspstrong willreturn memory(read, argmem: readwrite) uwtable
define internal void @rbimpl_rstring_getmem(ptr dead_on_unwind noalias writable sret(%struct.RString) align 8 %0, i64 noundef %1) #11 {
  %3 = alloca i64, align 8
  store i64 %1, ptr %3, align 8, !tbaa !7
  %4 = load i64, ptr %3, align 8, !tbaa !7
  %5 = call zeroext i1 @RB_FL_ANY_RAW(i64 noundef %4, i64 noundef 8192) #28
  br i1 %5, label %6, label %9

6:                                                ; preds = %2
  %7 = load i64, ptr %3, align 8, !tbaa !7
  %8 = inttoptr i64 %7 to ptr
  call void @llvm.memcpy.p0.p0.i64(ptr align 8 %0, ptr align 8 %8, i64 40, i1 false), !tbaa.struct !58
  br label %20

9:                                                ; preds = %2
  %10 = load i64, ptr %3, align 8, !tbaa !7
  %11 = call i64 @RSTRING_LEN(i64 noundef %10) #28
  %12 = getelementptr inbounds nuw %struct.RString, ptr %0, i32 0, i32 1
  store i64 %11, ptr %12, align 8, !tbaa !11
  %13 = load i64, ptr %3, align 8, !tbaa !7
  %14 = inttoptr i64 %13 to ptr
  %15 = getelementptr inbounds nuw %struct.RString, ptr %14, i32 0, i32 2
  %16 = getelementptr inbounds nuw %struct.anon.1, ptr %15, i32 0, i32 0
  %17 = getelementptr inbounds [1 x i8], ptr %16, i64 0, i64 0
  %18 = getelementptr inbounds nuw %struct.RString, ptr %0, i32 0, i32 2
  %19 = getelementptr inbounds nuw %struct.anon, ptr %18, i32 0, i32 0
  store ptr %17, ptr %19, align 8, !tbaa !14
  br label %20

20:                                               ; preds = %9, %6
  ret void
}

; Function Attrs: nounwind sspstrong uwtable
define internal ptr @get_encoding(i64 noundef %0) #0 {
  %2 = alloca i64, align 8
  store i64 %0, ptr %2, align 8, !tbaa !7
  %3 = load i64, ptr %2, align 8, !tbaa !7
  %4 = call i32 @RB_ENCODING_GET(i64 noundef %3)
  %5 = call ptr @rb_enc_from_index(i32 noundef %4)
  ret ptr %5
}

; Function Attrs: nounwind sspstrong uwtable
define internal i64 @rb_str_rstrip_bang(i64 noundef %0) #0 {
  %2 = alloca i64, align 8
  %3 = alloca i64, align 8
  %4 = alloca ptr, align 8
  %5 = alloca ptr, align 8
  %6 = alloca i64, align 8
  %7 = alloca i64, align 8
  %8 = alloca %struct.RString, align 8
  %9 = alloca i64, align 8
  %10 = alloca i64, align 8
  %11 = alloca ptr, align 8
  %12 = alloca i32, align 4
  %13 = alloca i32, align 4
  store i64 %0, ptr %3, align 8, !tbaa !7
  call void @llvm.lifetime.start.p0(i64 8, ptr %4) #29
  call void @llvm.lifetime.start.p0(i64 8, ptr %5) #29
  call void @llvm.lifetime.start.p0(i64 8, ptr %6) #29
  call void @llvm.lifetime.start.p0(i64 8, ptr %7) #29
  %14 = load i64, ptr %3, align 8, !tbaa !7
  call void @str_modify_keep_cr(i64 noundef %14)
  %15 = load i64, ptr %3, align 8, !tbaa !7
  %16 = call ptr @get_encoding(i64 noundef %15)
  store ptr %16, ptr %4, align 8, !tbaa !15
  call void @llvm.lifetime.start.p0(i64 40, ptr %8) #29
  %17 = load i64, ptr %3, align 8, !tbaa !7
  call void @rbimpl_rstring_getmem(ptr dead_on_unwind writable sret(%struct.RString) align 8 %8, i64 noundef %17) #31
  %18 = getelementptr inbounds nuw %struct.RString, ptr %8, i32 0, i32 2
  %19 = getelementptr inbounds nuw %struct.anon, ptr %18, i32 0, i32 0
  %20 = load ptr, ptr %19, align 8, !tbaa !14
  store ptr %20, ptr %5, align 8, !tbaa !24
  %21 = getelementptr inbounds nuw %struct.RString, ptr %8, i32 0, i32 1
  %22 = load i64, ptr %21, align 8, !tbaa !11
  store i64 %22, ptr %6, align 8, !tbaa !7
  store i64 %22, ptr %9, align 8, !tbaa !7
  call void @llvm.lifetime.end.p0(i64 40, ptr %8) #29
  %23 = load i64, ptr %3, align 8, !tbaa !7
  %24 = load ptr, ptr %5, align 8, !tbaa !24
  %25 = load ptr, ptr %5, align 8, !tbaa !24
  %26 = load i64, ptr %6, align 8, !tbaa !7
  %27 = getelementptr i8, ptr %25, i64 %26
  %28 = load ptr, ptr %4, align 8, !tbaa !15
  %29 = call i64 @rstrip_offset(i64 noundef %23, ptr noundef %24, ptr noundef %27, ptr noundef %28)
  store i64 %29, ptr %7, align 8, !tbaa !7
  %30 = load i64, ptr %7, align 8, !tbaa !7
  %31 = icmp sgt i64 %30, 0
  br i1 %31, label %32, label %67

32:                                               ; preds = %1
  call void @llvm.lifetime.start.p0(i64 8, ptr %10) #29
  %33 = load i64, ptr %6, align 8, !tbaa !7
  %34 = load i64, ptr %7, align 8, !tbaa !7
  %35 = sub i64 %33, %34
  store i64 %35, ptr %10, align 8, !tbaa !7
  br label %36

36:                                               ; preds = %32
  %37 = load i64, ptr %10, align 8, !tbaa !7
  %38 = load i64, ptr %3, align 8, !tbaa !7
  %39 = inttoptr i64 %38 to ptr
  %40 = getelementptr inbounds nuw %struct.RString, ptr %39, i32 0, i32 1
  store i64 %37, ptr %40, align 8, !tbaa !11
  br label %41

41:                                               ; preds = %36
  br label %42

42:                                               ; preds = %41
  br label %43

43:                                               ; preds = %42
  call void @llvm.lifetime.start.p0(i64 8, ptr %11) #29
  %44 = load ptr, ptr %5, align 8, !tbaa !24
  %45 = load i64, ptr %10, align 8, !tbaa !7
  %46 = getelementptr i8, ptr %44, i64 %45
  store ptr %46, ptr %11, align 8, !tbaa !24
  call void @llvm.lifetime.start.p0(i64 4, ptr %12) #29
  %47 = load ptr, ptr %4, align 8, !tbaa !15
  %48 = call i32 @rb_enc_mbminlen(ptr noundef %47)
  store i32 %48, ptr %12, align 4, !tbaa !22
  %49 = load ptr, ptr %11, align 8, !tbaa !24
  store i8 0, ptr %49, align 1, !tbaa !14
  %50 = load i32, ptr %12, align 4, !tbaa !22
  %51 = icmp sgt i32 %50, 1
  %52 = xor i1 %51, true
  %53 = xor i1 %52, true
  %54 = zext i1 %53 to i32
  %55 = sext i32 %54 to i64
  %56 = call i64 @llvm.expect.i64(i64 %55, i64 0)
  %57 = icmp ne i64 %56, 0
  br i1 %57, label %58, label %63

58:                                               ; preds = %43
  %59 = load ptr, ptr %11, align 8, !tbaa !24
  %60 = load i32, ptr %12, align 4, !tbaa !22
  %61 = sext i32 %60 to i64
  %62 = call ptr @memset.inline(ptr noundef %59, i32 noundef 0, i64 noundef %61) #29
  br label %63

63:                                               ; preds = %58, %43
  call void @llvm.lifetime.end.p0(i64 4, ptr %12) #29
  call void @llvm.lifetime.end.p0(i64 8, ptr %11) #29
  br label %64

64:                                               ; preds = %63
  br label %65

65:                                               ; preds = %64
  %66 = load i64, ptr %3, align 8, !tbaa !7
  store i64 %66, ptr %2, align 8
  store i32 1, ptr %13, align 4
  call void @llvm.lifetime.end.p0(i64 8, ptr %10) #29
  br label %68

67:                                               ; preds = %1
  store i64 4, ptr %2, align 8
  store i32 1, ptr %13, align 4
  br label %68

68:                                               ; preds = %67, %65
  call void @llvm.lifetime.end.p0(i64 8, ptr %7) #29
  call void @llvm.lifetime.end.p0(i64 8, ptr %6) #29
  call void @llvm.lifetime.end.p0(i64 8, ptr %5) #29
  call void @llvm.lifetime.end.p0(i64 8, ptr %4) #29
  %69 = load i64, ptr %2, align 8
  ret i64 %69
}