; Function Attrs: nounwind sspstrong uwtable
define internal noundef i64 @rb_str_rstrip_bang(i64 noundef %0) #1 {
  tail call fastcc void @str_modify_keep_cr(i64 noundef %0)
  %2 = inttoptr i64 %0 to ptr
  %3 = load i64, ptr %2, align 8, !tbaa !7
  %4 = trunc i64 %3 to i32
  %5 = lshr i32 %4, 22
  %6 = and i32 %5, 127
  %7 = icmp eq i32 %6, 127
  br i1 %7, label %8, label %get_encoding.exit

8:                                                ; preds = %1
  %9 = tail call i32 @rb_enc_get_index(i64 noundef %0) #29
  br label %get_encoding.exit

get_encoding.exit:                                ; preds = %1, %8
  %.0.i.i = phi i32 [ %9, %8 ], [ %6, %1 ]
  %10 = tail call ptr @rb_enc_from_index(i32 noundef %.0.i.i) #29
  %11 = load i64, ptr %2, align 8, !tbaa !7, !noalias !713
  %12 = and i64 %11, 8192
  %.not.i = icmp eq i64 %12, 0
  %13 = getelementptr inbounds nuw i8, ptr %2, i64 24
  br i1 %.not.i, label %rbimpl_rstring_getmem.exit, label %14

14:                                               ; preds = %get_encoding.exit
  %.sroa.5.0.copyload = load ptr, ptr %13, align 8
  br label %rbimpl_rstring_getmem.exit

rbimpl_rstring_getmem.exit:                       ; preds = %get_encoding.exit, %14
  %.sroa.5.0 = phi ptr [ %.sroa.5.0.copyload, %14 ], [ %13, %get_encoding.exit ]
  %.sroa.3.0.in = getelementptr inbounds nuw i8, ptr %2, i64 16
  %.sroa.3.0 = load i64, ptr %.sroa.3.0.in, align 8, !tbaa !26
  %15 = getelementptr i8, ptr %.sroa.5.0, i64 %.sroa.3.0
  %16 = tail call fastcc i64 @rstrip_offset(i64 noundef %0, ptr noundef %.sroa.5.0, ptr noundef %15, ptr noundef %10)
  %17 = icmp sgt i64 %16, 0
  br i1 %17, label %18, label %25

18:                                               ; preds = %rbimpl_rstring_getmem.exit
  %19 = sub i64 %.sroa.3.0, %16
  store i64 %19, ptr %.sroa.3.0.in, align 8, !tbaa !12
  %20 = getelementptr i8, ptr %.sroa.5.0, i64 %19
  %21 = getelementptr i8, ptr %10, i64 20
  %.val = load i32, ptr %21, align 4, !tbaa !14
  store i8 0, ptr %20, align 1, !tbaa !19
  %22 = icmp sgt i32 %.val, 1
  br i1 %22, label %23, label %25, !prof !41

23:                                               ; preds = %18
  %24 = zext nneg i32 %.val to i64
  tail call void @llvm.memset.p0.i64(ptr noundef nonnull align 1 %20, i8 noundef 0, i64 noundef %24, i1 noundef false) #29
  br label %25

25:                                               ; preds = %rbimpl_rstring_getmem.exit, %18, %23
  %.0 = phi i64 [ %0, %23 ], [ %0, %18 ], [ 4, %rbimpl_rstring_getmem.exit ]
  ret i64 %.0
}